target datalayout = "e-m:e-p270:32:32-p271:32:32-p272:64:64-i64:64-i128:128-f80:128-n8:16:32:64-S128"
target triple = "x86_64-pc-linux-gnu"

%"struct.Luau::NotNull" = type { ptr }
%"struct.Luau::NotNull.1" = type { ptr }
%"struct.Luau::NotNull.2" = type { ptr }
%"struct.Luau::NotNull.3" = type { ptr }
%"struct.Luau::TypeCheckLimits" = type { %"class.std::optional", %"class.std::optional.5", %"class.std::optional.5", %"class.std::shared_ptr" }
%"class.std::optional" = type { %"struct.std::_Optional_base" }
%"struct.std::_Optional_base" = type { %"struct.std::_Optional_payload" }
%"struct.std::_Optional_payload" = type { %"struct.std::_Optional_payload_base.base", [7 x i8] }
%"struct.std::_Optional_payload_base.base" = type <{ %"union.std::_Optional_payload_base<double>::_Storage", i8 }>
%"union.std::_Optional_payload_base<double>::_Storage" = type { double }
%"class.std::optional.5" = type { %"struct.std::_Optional_base.6" }
%"struct.std::_Optional_base.6" = type { %"struct.std::_Optional_payload.8" }
%"struct.std::_Optional_payload.8" = type { %"struct.std::_Optional_payload_base.base.10", [3 x i8] }
%"struct.std::_Optional_payload_base.base.10" = type <{ %"union.std::_Optional_payload_base<int>::_Storage", i8 }>
%"union.std::_Optional_payload_base<int>::_Storage" = type { i32 }
%"class.std::shared_ptr" = type { %"class.std::__shared_ptr" }
%"class.std::__shared_ptr" = type { ptr, %"class.std::__shared_count" }
%"class.std::__shared_count" = type { ptr }
%"struct.Luau::ConstraintSolver" = type { %"struct.Luau::NotNull.1", %"struct.Luau::NotNull.2", %"struct.Luau::InternalErrorReporter", %"struct.Luau::NotNull.34", %"struct.Luau::NotNull.35", %"struct.Luau::NotNull.36", %"class.std::vector.37", %"struct.Luau::NotNull.3", %"class.std::__cxx11::basic_string", %"struct.Luau::NotNull.42", %"class.std::vector.43", %"class.std::vector.48", %"class.std::unordered_map", %"class.std::unordered_map.58", %"class.Luau::DenseHashMap.76", %"class.Luau::DenseHashMap.99", %"class.Luau::DenseHashMap.102", %"class.std::unordered_map.105", %"class.Luau::DenseHashSet.119", %"class.Luau::DenseHashSet.122", %"struct.Luau::NotNull.125", %"class.std::vector.126", %"struct.Luau::NotNull.131", %"class.std::vector.132", ptr, %"struct.Luau::TypeCheckLimits", %"class.Luau::DenseHashMap.137", %"struct.Luau::ToStringOptions" }
%"struct.Luau::InternalErrorReporter" = type { %"class.std::function", %"class.std::__cxx11::basic_string" }
%"class.std::function" = type { %"class.std::_Function_base", ptr }
%"class.std::_Function_base" = type { %"union.std::_Any_data", ptr }
%"union.std::_Any_data" = type { %"union.std::_Nocopy_types" }
%"union.std::_Nocopy_types" = type { { i64, i64 } }
%"struct.Luau::NotNull.34" = type { ptr }
%"struct.Luau::NotNull.35" = type { ptr }
%"struct.Luau::NotNull.36" = type { ptr }
%"class.std::vector.37" = type { %"struct.std::_Vector_base.38" }
%"struct.std::_Vector_base.38" = type { %"struct.std::_Vector_base<Luau::NotNull<Luau::Constraint>, std::allocator<Luau::NotNull<Luau::Constraint>>>::_Vector_impl" }
%"struct.std::_Vector_base<Luau::NotNull<Luau::Constraint>, std::allocator<Luau::NotNull<Luau::Constraint>>>::_Vector_impl" = type { %"struct.std::_Vector_base<Luau::NotNull<Luau::Constraint>, std::allocator<Luau::NotNull<Luau::Constraint>>>::_Vector_impl_data" }
%"struct.std::_Vector_base<Luau::NotNull<Luau::Constraint>, std::allocator<Luau::NotNull<Luau::Constraint>>>::_Vector_impl_data" = type { ptr, ptr, ptr }
%"class.std::__cxx11::basic_string" = type { %"struct.std::__cxx11::basic_string<char>::_Alloc_hider", i64, %union.anon }
%"struct.std::__cxx11::basic_string<char>::_Alloc_hider" = type { ptr }
%union.anon = type { i64, [8 x i8] }
%"struct.Luau::NotNull.42" = type { ptr }
%"class.std::vector.43" = type { %"struct.std::_Vector_base.44" }
%"struct.std::_Vector_base.44" = type { %"struct.std::_Vector_base<std::unique_ptr<Luau::Constraint>, std::allocator<std::unique_ptr<Luau::Constraint>>>::_Vector_impl" }
%"struct.std::_Vector_base<std::unique_ptr<Luau::Constraint>, std::allocator<std::unique_ptr<Luau::Constraint>>>::_Vector_impl" = type { %"struct.std::_Vector_base<std::unique_ptr<Luau::Constraint>, std::allocator<std::unique_ptr<Luau::Constraint>>>::_Vector_impl_data" }
%"struct.std::_Vector_base<std::unique_ptr<Luau::Constraint>, std::allocator<std::unique_ptr<Luau::Constraint>>>::_Vector_impl_data" = type { ptr, ptr, ptr }
%"class.std::vector.48" = type { %"struct.std::_Vector_base.49" }
%"struct.std::_Vector_base.49" = type { %"struct.std::_Vector_base<Luau::NotNull<const Luau::Constraint>, std::allocator<Luau::NotNull<const Luau::Constraint>>>::_Vector_impl" }
%"struct.std::_Vector_base<Luau::NotNull<const Luau::Constraint>, std::allocator<Luau::NotNull<const Luau::Constraint>>>::_Vector_impl" = type { %"struct.std::_Vector_base<Luau::NotNull<const Luau::Constraint>, std::allocator<Luau::NotNull<const Luau::Constraint>>>::_Vector_impl_data" }
%"struct.std::_Vector_base<Luau::NotNull<const Luau::Constraint>, std::allocator<Luau::NotNull<const Luau::Constraint>>>::_Vector_impl_data" = type { ptr, ptr, ptr }
%"class.std::unordered_map" = type { %"class.std::_Hashtable" }
%"class.std::_Hashtable" = type { ptr, i64, %"struct.std::__detail::_Hash_node_base", i64, %"struct.std::__detail::_Prime_rehash_policy", ptr }
%"struct.std::__detail::_Hash_node_base" = type { ptr }
%"struct.std::__detail::_Prime_rehash_policy" = type { float, i64 }
%"class.std::unordered_map.58" = type { %"class.std::_Hashtable.59" }
%"class.std::_Hashtable.59" = type { ptr, i64, %"struct.std::__detail::_Hash_node_base", i64, %"struct.std::__detail::_Prime_rehash_policy", ptr }
%"class.Luau::DenseHashMap.76" = type { %"class.Luau::detail::DenseHashTable.77" }
%"class.Luau::detail::DenseHashTable.77" = type <{ ptr, i64, i64, %"struct.Luau::InstantiationSignature", [8 x i8] }>
%"struct.Luau::InstantiationSignature" = type { %"struct.Luau::TypeFun", %"class.std::vector.88", %"class.std::vector.93" }
%"struct.Luau::TypeFun" = type { %"class.std::vector.78", %"class.std::vector.83", ptr }
%"class.std::vector.78" = type { %"struct.std::_Vector_base.79" }
%"struct.std::_Vector_base.79" = type { %"struct.std::_Vector_base<Luau::GenericTypeDefinition, std::allocator<Luau::GenericTypeDefinition>>::_Vector_impl" }
%"struct.std::_Vector_base<Luau::GenericTypeDefinition, std::allocator<Luau::GenericTypeDefinition>>::_Vector_impl" = type { %"struct.std::_Vector_base<Luau::GenericTypeDefinition, std::allocator<Luau::GenericTypeDefinition>>::_Vector_impl_data" }
%"struct.std::_Vector_base<Luau::GenericTypeDefinition, std::allocator<Luau::GenericTypeDefinition>>::_Vector_impl_data" = type { ptr, ptr, ptr }
%"class.std::vector.83" = type { %"struct.std::_Vector_base.84" }
%"struct.std::_Vector_base.84" = type { %"struct.std::_Vector_base<Luau::GenericTypePackDefinition, std::allocator<Luau::GenericTypePackDefinition>>::_Vector_impl" }
%"struct.std::_Vector_base<Luau::GenericTypePackDefinition, std::allocator<Luau::GenericTypePackDefinition>>::_Vector_impl" = type { %"struct.std::_Vector_base<Luau::GenericTypePackDefinition, std::allocator<Luau::GenericTypePackDefinition>>::_Vector_impl_data" }
%"struct.std::_Vector_base<Luau::GenericTypePackDefinition, std::allocator<Luau::GenericTypePackDefinition>>::_Vector_impl_data" = type { ptr, ptr, ptr }
%"class.std::vector.88" = type { %"struct.std::_Vector_base.89" }
%"struct.std::_Vector_base.89" = type { %"struct.std::_Vector_base<const Luau::Type *, std::allocator<const Luau::Type *>>::_Vector_impl" }
%"struct.std::_Vector_base<const Luau::Type *, std::allocator<const Luau::Type *>>::_Vector_impl" = type { %"struct.std::_Vector_base<const Luau::Type *, std::allocator<const Luau::Type *>>::_Vector_impl_data" }
%"struct.std::_Vector_base<const Luau::Type *, std::allocator<const Luau::Type *>>::_Vector_impl_data" = type { ptr, ptr, ptr }
%"class.std::vector.93" = type { %"struct.std::_Vector_base.94" }
%"struct.std::_Vector_base.94" = type { %"struct.std::_Vector_base<const Luau::TypePackVar *, std::allocator<const Luau::TypePackVar *>>::_Vector_impl" }
%"struct.std::_Vector_base<const Luau::TypePackVar *, std::allocator<const Luau::TypePackVar *>>::_Vector_impl" = type { %"struct.std::_Vector_base<const Luau::TypePackVar *, std::allocator<const Luau::TypePackVar *>>::_Vector_impl_data" }
%"struct.std::_Vector_base<const Luau::TypePackVar *, std::allocator<const Luau::TypePackVar *>>::_Vector_impl_data" = type { ptr, ptr, ptr }
%"class.Luau::DenseHashMap.99" = type { %"class.Luau::detail::DenseHashTable.100" }
%"class.Luau::detail::DenseHashTable.100" = type <{ ptr, i64, i64, ptr, [8 x i8] }>
%"class.Luau::DenseHashMap.102" = type { %"class.Luau::detail::DenseHashTable.103" }
%"class.Luau::detail::DenseHashTable.103" = type <{ ptr, i64, i64, ptr, [8 x i8] }>
%"class.std::unordered_map.105" = type { %"class.std::_Hashtable.106" }
%"class.std::_Hashtable.106" = type { ptr, i64, %"struct.std::__detail::_Hash_node_base", i64, %"struct.std::__detail::_Prime_rehash_policy", ptr }
%"class.Luau::DenseHashSet.119" = type { %"class.Luau::detail::DenseHashTable.120" }
%"class.Luau::detail::DenseHashTable.120" = type <{ ptr, i64, i64, ptr, [8 x i8] }>
%"class.Luau::DenseHashSet.122" = type { %"class.Luau::detail::DenseHashTable.123" }
%"class.Luau::detail::DenseHashTable.123" = type <{ ptr, i64, i64, ptr, [8 x i8] }>
%"struct.Luau::NotNull.125" = type { ptr }
%"class.std::vector.126" = type { %"struct.std::_Vector_base.127" }
%"struct.std::_Vector_base.127" = type { %"struct.std::_Vector_base<Luau::TypeError, std::allocator<Luau::TypeError>>::_Vector_impl" }
%"struct.std::_Vector_base<Luau::TypeError, std::allocator<Luau::TypeError>>::_Vector_impl" = type { %"struct.std::_Vector_base<Luau::TypeError, std::allocator<Luau::TypeError>>::_Vector_impl_data" }
%"struct.std::_Vector_base<Luau::TypeError, std::allocator<Luau::TypeError>>::_Vector_impl_data" = type { ptr, ptr, ptr }
%"struct.Luau::NotNull.131" = type { ptr }
%"class.std::vector.132" = type { %"struct.std::_Vector_base.133" }
%"struct.std::_Vector_base.133" = type { %"struct.std::_Vector_base<Luau::RequireCycle, std::allocator<Luau::RequireCycle>>::_Vector_impl" }
%"struct.std::_Vector_base<Luau::RequireCycle, std::allocator<Luau::RequireCycle>>::_Vector_impl" = type { %"struct.std::_Vector_base<Luau::RequireCycle, std::allocator<Luau::RequireCycle>>::_Vector_impl_data" }
%"struct.std::_Vector_base<Luau::RequireCycle, std::allocator<Luau::RequireCycle>>::_Vector_impl_data" = type { ptr, ptr, ptr }
%"class.Luau::DenseHashMap.137" = type { %"class.Luau::detail::DenseHashTable.138" }
%"class.Luau::detail::DenseHashTable.138" = type <{ ptr, i64, i64, ptr, [8 x i8] }>
%"struct.Luau::ToStringOptions" = type { i8, i8, i8, i8, i8, i8, i8, i64, i64, i64, %"struct.Luau::ToStringNameMap", %"class.std::shared_ptr.179", %"class.std::vector.182" }
%"struct.Luau::ToStringNameMap" = type { %"class.std::unordered_map.140", %"class.std::unordered_map.159" }
%"class.std::unordered_map.140" = type { %"class.std::_Hashtable.141" }
%"class.std::_Hashtable.141" = type { ptr, i64, %"struct.std::__detail::_Hash_node_base", i64, %"struct.std::__detail::_Prime_rehash_policy", ptr }
%"class.std::unordered_map.159" = type { %"class.std::_Hashtable.160" }
%"class.std::_Hashtable.160" = type { ptr, i64, %"struct.std::__detail::_Hash_node_base", i64, %"struct.std::__detail::_Prime_rehash_policy", ptr }
%"class.std::shared_ptr.179" = type { %"class.std::__shared_ptr.180" }
%"class.std::__shared_ptr.180" = type { ptr, %"class.std::__shared_count" }
%"class.std::vector.182" = type { %"struct.std::_Vector_base.183" }
%"struct.std::_Vector_base.183" = type { %"struct.std::_Vector_base<std::__cxx11::basic_string<char>, std::allocator<std::__cxx11::basic_string<char>>>::_Vector_impl" }
%"struct.std::_Vector_base<std::__cxx11::basic_string<char>, std::allocator<std::__cxx11::basic_string<char>>>::_Vector_impl" = type { %"struct.std::_Vector_base<std::__cxx11::basic_string<char>, std::allocator<std::__cxx11::basic_string<char>>>::_Vector_impl_data" }
%"struct.std::_Vector_base<std::__cxx11::basic_string<char>, std::allocator<std::__cxx11::basic_string<char>>>::_Vector_impl_data" = type { ptr, ptr, ptr }
%"class.__gnu_cxx::__normal_iterator.912" = type { ptr }

; Function Attrs: mustprogress nounwind uwtable
define linkonce_odr dso_local noundef nonnull align 8 dereferenceable(8) ptr @_ZNK9__gnu_cxx17__normal_iteratorIPKN4Luau7NotNullIKNS1_10ConstraintEEESt6vectorIS5_SaIS5_EEE4baseEv(ptr noundef nonnull align 8 dereferenceable(8) %0) #2 comdat align 2 {
  %2 = alloca ptr, align 8
  store ptr %0, ptr %2, align 8, !tbaa !1736
  %3 = load ptr, ptr %2, align 8
  %4 = getelementptr inbounds nuw %"class.__gnu_cxx::__normal_iterator.912", ptr %3, i32 0, i32 0
  ret ptr %4
}

; Function Attrs: mustprogress nounwind uwtable
define linkonce_odr dso_local void @_ZN9__gnu_cxx17__normal_iteratorIPKN4Luau7NotNullIKNS1_10ConstraintEEESt6vectorIS5_SaIS5_EEEC2ERKS7_(ptr noundef nonnull align 8 dereferenceable(8) %0, ptr noundef nonnull align 8 dereferenceable(8) %1) unnamed_addr #2 comdat align 2 {
  %3 = alloca ptr, align 8
  %4 = alloca ptr, align 8
  store ptr %0, ptr %3, align 8, !tbaa !1736
  store ptr %1, ptr %4, align 8, !tbaa !1914
  %5 = load ptr, ptr %3, align 8
  %6 = getelementptr inbounds nuw %"class.__gnu_cxx::__normal_iterator.912", ptr %5, i32 0, i32 0
  %7 = load ptr, ptr %4, align 8, !tbaa !1914
  %8 = load ptr, ptr %7, align 8, !tbaa !71
  store ptr %8, ptr %6, align 8, !tbaa !1738
  ret void
}

; Function Attrs: inlinehint mustprogress nounwind uwtable
define linkonce_odr dso_local noundef zeroext i1 @_ZN9__gnu_cxxeqIPKN4Luau7NotNullIKNS1_10ConstraintEEESt6vectorIS5_SaIS5_EEEEbRKNS_17__normal_iteratorIT_T0_EESG_(ptr noundef nonnull align 8 dereferenceable(8) %0, ptr noundef nonnull align 8 dereferenceable(8) %1) #3 comdat {
  %3 = alloca ptr, align 8
  %4 = alloca ptr, align 8
  store ptr %0, ptr %3, align 8, !tbaa !1736
  store ptr %1, ptr %4, align 8, !tbaa !1736
  %5 = load ptr, ptr %3, align 8, !tbaa !1736
  %6 = call noundef nonnull align 8 dereferenceable(8) ptr @_ZNK9__gnu_cxx17__normal_iteratorIPKN4Luau7NotNullIKNS1_10ConstraintEEESt6vectorIS5_SaIS5_EEE4baseEv(ptr noundef nonnull align 8 dereferenceable(8) %5) #4
  %7 = load ptr, ptr %6, align 8, !tbaa !71
  %8 = load ptr, ptr %4, align 8, !tbaa !1736
  %9 = call noundef nonnull align 8 dereferenceable(8) ptr @_ZNK9__gnu_cxx17__normal_iteratorIPKN4Luau7NotNullIKNS1_10ConstraintEEESt6vectorIS5_SaIS5_EEE4baseEv(ptr noundef nonnull align 8 dereferenceable(8) %8) #4
  %10 = load ptr, ptr %9, align 8, !tbaa !71
  %11 = icmp eq ptr %7, %10
  ret i1 %11
}

; Function Attrs: mustprogress nounwind uwtable
define linkonce_odr dso_local ptr @_ZNKSt6vectorIN4Luau7NotNullIKNS0_10ConstraintEEESaIS4_EE3endEv(ptr noundef nonnull align 8 dereferenceable(24) %0) #2 comdat align 2 {
  %2 = alloca %"class.__gnu_cxx::__normal_iterator.912", align 8
  %3 = alloca ptr, align 8
  store ptr %0, ptr %3, align 8, !tbaa !203
  %4 = load ptr, ptr %3, align 8
  %5 = getelementptr inbounds nuw %"struct.std::_Vector_base.49", ptr %4, i32 0, i32 0
  %6 = getelementptr inbounds nuw %"struct.std::_Vector_base<Luau::NotNull<const Luau::Constraint>, std::allocator<Luau::NotNull<const Luau::Constraint>>>::_Vector_impl_data", ptr %5, i32 0, i32 1
  call void @_ZN9__gnu_cxx17__normal_iteratorIPKN4Luau7NotNullIKNS1_10ConstraintEEESt6vectorIS5_SaIS5_EEEC2ERKS7_(ptr noundef nonnull align 8 dereferenceable(8) %2, ptr noundef nonnull align 8 dereferenceable(8) %6) #4
  %7 = getelementptr inbounds nuw %"class.__gnu_cxx::__normal_iterator.912", ptr %2, i32 0, i32 0
  %8 = load ptr, ptr %7, align 8
  ret ptr %8
}

; Function Attrs: mustprogress nounwind uwtable
define linkonce_odr dso_local ptr @_ZNKSt6vectorIN4Luau7NotNullIKNS0_10ConstraintEEESaIS4_EE5beginEv(ptr noundef nonnull align 8 dereferenceable(24) %0) #2 comdat align 2 {
  %2 = alloca %"class.__gnu_cxx::__normal_iterator.912", align 8
  %3 = alloca ptr, align 8
  store ptr %0, ptr %3, align 8, !tbaa !203
  %4 = load ptr, ptr %3, align 8
  %5 = getelementptr inbounds nuw %"struct.std::_Vector_base.49", ptr %4, i32 0, i32 0
  %6 = getelementptr inbounds nuw %"struct.std::_Vector_base<Luau::NotNull<const Luau::Constraint>, std::allocator<Luau::NotNull<const Luau::Constraint>>>::_Vector_impl_data", ptr %5, i32 0, i32 0
  call void @_ZN9__gnu_cxx17__normal_iteratorIPKN4Luau7NotNullIKNS1_10ConstraintEEESt6vectorIS5_SaIS5_EEEC2ERKS7_(ptr noundef nonnull align 8 dereferenceable(8) %2, ptr noundef nonnull align 8 dereferenceable(8) %6) #4
  %7 = getelementptr inbounds nuw %"class.__gnu_cxx::__normal_iterator.912", ptr %2, i32 0, i32 0
  %8 = load ptr, ptr %7, align 8
  ret ptr %8
}

; Function Attrs: inlinehint mustprogress nounwind uwtable
define linkonce_odr dso_local void @_ZSt4swapIN4Luau7NotNullIKNS0_10ConstraintEEEENSt9enable_ifIXsr6__and_ISt6__not_ISt15__is_tuple_likeIT_EESt21is_move_constructibleIS8_ESt18is_move_assignableIS8_EEE5valueEvE4typeERS8_SH_(ptr noundef nonnull align 8 dereferenceable(8) %0, ptr noundef nonnull align 8 dereferenceable(8) %1) #3 comdat {
  %3 = alloca ptr, align 8
  %4 = alloca ptr, align 8
  %5 = alloca %"struct.Luau::NotNull", align 8
  store ptr %0, ptr %3, align 8, !tbaa !71
  store ptr %1, ptr %4, align 8, !tbaa !71
  call void @llvm.lifetime.start.p0(i64 8, ptr %5) #4
  %6 = load ptr, ptr %3, align 8, !tbaa !71
  call void @llvm.memcpy.p0.p0.i64(ptr align 8 %5, ptr align 8 %6, i64 8, i1 false), !tbaa.struct !59
  %7 = load ptr, ptr %4, align 8, !tbaa !71
  %8 = load ptr, ptr %3, align 8, !tbaa !71
  call void @llvm.memcpy.p0.p0.i64(ptr align 8 %8, ptr align 8 %7, i64 8, i1 false), !tbaa.struct !59
  %9 = load ptr, ptr %4, align 8, !tbaa !71
  call void @llvm.memcpy.p0.p0.i64(ptr align 8 %9, ptr align 8 %5, i64 8, i1 false), !tbaa.struct !59
  call void @llvm.lifetime.end.p0(i64 8, ptr %5) #4
  ret void
}

; Function Attrs: mustprogress nounwind uwtable
define linkonce_odr dso_local noundef nonnull align 8 dereferenceable(8) ptr @_ZNSt6vectorIN4Luau7NotNullIKNS0_10ConstraintEEESaIS4_EEixEm(ptr noundef nonnull align 8 dereferenceable(24) %0, i64 noundef %1) #2 comdat align 2 {
  %3 = alloca ptr, align 8
  %4 = alloca i64, align 8
  store ptr %0, ptr %3, align 8, !tbaa !203
  store i64 %1, ptr %4, align 8, !tbaa !117
  %5 = load ptr, ptr %3, align 8
  %6 = getelementptr inbounds nuw %"struct.std::_Vector_base.49", ptr %5, i32 0, i32 0
  %7 = getelementptr inbounds nuw %"struct.std::_Vector_base<Luau::NotNull<const Luau::Constraint>, std::allocator<Luau::NotNull<const Luau::Constraint>>>::_Vector_impl_data", ptr %6, i32 0, i32 0
  %8 = load ptr, ptr %7, align 8, !tbaa !438
  %9 = load i64, ptr %4, align 8, !tbaa !117
  %10 = getelementptr inbounds nuw %"struct.Luau::NotNull", ptr %8, i64 %9
  ret ptr %10
}

; Function Attrs: mustprogress nounwind uwtable
define linkonce_odr dso_local noundef i64 @_ZNKSt6vectorIN4Luau7NotNullIKNS0_10ConstraintEEESaIS4_EE4sizeEv(ptr noundef nonnull align 8 dereferenceable(24) %0) #2 comdat align 2 {
  %2 = alloca ptr, align 8
  store ptr %0, ptr %2, align 8, !tbaa !203
  %3 = load ptr, ptr %2, align 8
  %4 = getelementptr inbounds nuw %"struct.std::_Vector_base.49", ptr %3, i32 0, i32 0
  %5 = getelementptr inbounds nuw %"struct.std::_Vector_base<Luau::NotNull<const Luau::Constraint>, std::allocator<Luau::NotNull<const Luau::Constraint>>>::_Vector_impl_data", ptr %4, i32 0, i32 1
  %6 = load ptr, ptr %5, align 8, !tbaa !418
  %7 = getelementptr inbounds nuw %"struct.std::_Vector_base.49", ptr %3, i32 0, i32 0
  %8 = getelementptr inbounds nuw %"struct.std::_Vector_base<Luau::NotNull<const Luau::Constraint>, std::allocator<Luau::NotNull<const Luau::Constraint>>>::_Vector_impl_data", ptr %7, i32 0, i32 0
  %9 = load ptr, ptr %8, align 8, !tbaa !438
  %10 = ptrtoint ptr %6 to i64
  %11 = ptrtoint ptr %9 to i64
  %12 = sub i64 %10, %11
  %13 = sdiv exact i64 %12, 8
  ret i64 %13
}

; Function Attrs: mustprogress nounwind uwtable
define linkonce_odr dso_local noundef zeroext i1 @_ZNKSt6vectorIN4Luau7NotNullIKNS0_10ConstraintEEESaIS4_EE5emptyEv(ptr noundef nonnull align 8 dereferenceable(24) %0) #2 comdat align 2 {
  %2 = alloca ptr, align 8
  %3 = alloca %"class.__gnu_cxx::__normal_iterator.912", align 8
  %4 = alloca %"class.__gnu_cxx::__normal_iterator.912", align 8
  store ptr %0, ptr %2, align 8, !tbaa !203
  %5 = load ptr, ptr %2, align 8
  call void @llvm.lifetime.start.p0(i64 8, ptr %3) #4
  %6 = call ptr @_ZNKSt6vectorIN4Luau7NotNullIKNS0_10ConstraintEEESaIS4_EE5beginEv(ptr noundef nonnull align 8 dereferenceable(24) %5) #4
  %7 = getelementptr inbounds nuw %"class.__gnu_cxx::__normal_iterator.912", ptr %3, i32 0, i32 0
  store ptr %6, ptr %7, align 8
  call void @llvm.lifetime.start.p0(i64 8, ptr %4) #4
  %8 = call ptr @_ZNKSt6vectorIN4Luau7NotNullIKNS0_10ConstraintEEESaIS4_EE3endEv(ptr noundef nonnull align 8 dereferenceable(24) %5) #4
  %9 = getelementptr inbounds nuw %"class.__gnu_cxx::__normal_iterator.912", ptr %4, i32 0, i32 0
  store ptr %8, ptr %9, align 8
  %10 = call noundef zeroext i1 @_ZN9__gnu_cxxeqIPKN4Luau7NotNullIKNS1_10ConstraintEEESt6vectorIS5_SaIS5_EEEEbRKNS_17__normal_iteratorIT_T0_EESG_(ptr noundef nonnull align 8 dereferenceable(8) %3, ptr noundef nonnull align 8 dereferenceable(8) %4) #4
  call void @llvm.lifetime.end.p0(i64 8, ptr %4) #4
  call void @llvm.lifetime.end.p0(i64 8, ptr %3) #4
  ret i1 %10
}

; Function Attrs: mustprogress nounwind uwtable
define dso_local void @_ZN4Luau16ConstraintSolver9randomizeEj(ptr noundef nonnull align 8 dereferenceable(1032) %0, i32 noundef %1) #2 align 2 {
  %3 = alloca ptr, align 8
  %4 = alloca i32, align 4
  %5 = alloca i32, align 4
  %6 = alloca i64, align 8
  %7 = alloca i64, align 8
  store ptr %0, ptr %3, align 8, !tbaa !42
  store i32 %1, ptr %4, align 4, !tbaa !4
  %8 = load ptr, ptr %3, align 8
  %9 = getelementptr inbounds nuw %"struct.Luau::ConstraintSolver", ptr %8, i32 0, i32 11
  %10 = call noundef zeroext i1 @_ZNKSt6vectorIN4Luau7NotNullIKNS0_10ConstraintEEESaIS4_EE5emptyEv(ptr noundef nonnull align 8 dereferenceable(24) %9) #4
  br i1 %10, label %11, label %12

11:                                               ; preds = %2
  br label %40

12:                                               ; preds = %2
  call void @llvm.lifetime.start.p0(i64 4, ptr %5) #4
  %13 = load i32, ptr %4, align 4, !tbaa !4
  store i32 %13, ptr %5, align 4, !tbaa !4
  call void @llvm.lifetime.start.p0(i64 8, ptr %6) #4
  %14 = getelementptr inbounds nuw %"struct.Luau::ConstraintSolver", ptr %8, i32 0, i32 11
  %15 = call noundef i64 @_ZNKSt6vectorIN4Luau7NotNullIKNS0_10ConstraintEEESaIS4_EE4sizeEv(ptr noundef nonnull align 8 dereferenceable(24) %14) #4
  %16 = sub i64 %15, 1
  store i64 %16, ptr %6, align 8, !tbaa !117
  br label %17

17:                                               ; preds = %36, %12
  %18 = load i64, ptr %6, align 8, !tbaa !117
  %19 = icmp ugt i64 %18, 0
  br i1 %19, label %21, label %20

20:                                               ; preds = %17
  call void @llvm.lifetime.end.p0(i64 8, ptr %6) #4
  br label %39

21:                                               ; preds = %17
  call void @llvm.lifetime.start.p0(i64 8, ptr %7) #4
  %22 = load i32, ptr %5, align 4, !tbaa !4
  %23 = zext i32 %22 to i64
  %24 = load i64, ptr %6, align 8, !tbaa !117
  %25 = add i64 %24, 1
  %26 = urem i64 %23, %25
  store i64 %26, ptr %7, align 8, !tbaa !117
  %27 = getelementptr inbounds nuw %"struct.Luau::ConstraintSolver", ptr %8, i32 0, i32 11
  %28 = load i64, ptr %6, align 8, !tbaa !117
  %29 = call noundef nonnull align 8 dereferenceable(8) ptr @_ZNSt6vectorIN4Luau7NotNullIKNS0_10ConstraintEEESaIS4_EEixEm(ptr noundef nonnull align 8 dereferenceable(24) %27, i64 noundef %28) #4
  %30 = getelementptr inbounds nuw %"struct.Luau::ConstraintSolver", ptr %8, i32 0, i32 11
  %31 = load i64, ptr %7, align 8, !tbaa !117
  %32 = call noundef nonnull align 8 dereferenceable(8) ptr @_ZNSt6vectorIN4Luau7NotNullIKNS0_10ConstraintEEESaIS4_EEixEm(ptr noundef nonnull align 8 dereferenceable(24) %30, i64 noundef %31) #4
  call void @_ZSt4swapIN4Luau7NotNullIKNS0_10ConstraintEEEENSt9enable_ifIXsr6__and_ISt6__not_ISt15__is_tuple_likeIT_EESt21is_move_constructibleIS8_ESt18is_move_assignableIS8_EEE5valueEvE4typeERS8_SH_(ptr noundef nonnull align 8 dereferenceable(8) %29, ptr noundef nonnull align 8 dereferenceable(8) %32) #4
  %33 = load i32, ptr %5, align 4, !tbaa !4
  %34 = mul i32 %33, 1664525
  %35 = add i32 %34, 1013904223
  store i32 %35, ptr %5, align 4, !tbaa !4
  call void @llvm.lifetime.end.p0(i64 8, ptr %7) #4
  br label %36

36:                                               ; preds = %21
  %37 = load i64, ptr %6, align 8, !tbaa !117
  %38 = add i64 %37, -1
  store i64 %38, ptr %6, align 8, !tbaa !117
  br label %17, !llvm.loop !443

39:                                               ; preds = %20
  call void @llvm.lifetime.end.p0(i64 4, ptr %5) #4
  br label %40

40:                                               ; preds = %39, %11
  ret void
}