; Function Attrs: mustprogress nofree norecurse nosync nounwind memory(readwrite, inaccessiblemem: none) uwtable
define dso_local void @_ZN4Luau16ConstraintSolver9randomizeEj(ptr noundef nonnull readonly align 8 captures(none) dereferenceable(1032) %0, i32 noundef %1) local_unnamed_addr #12 align 2 {
  %3 = getelementptr inbounds nuw i8, ptr %0, i64 200
  %4 = load ptr, ptr %3, align 8, !tbaa !212
  %5 = getelementptr inbounds nuw i8, ptr %0, i64 208
  %6 = load ptr, ptr %5, align 8, !tbaa !212
  %7 = icmp eq ptr %4, %6
  br i1 %7, label %.loopexit, label %8

8:                                                ; preds = %2
  %9 = ptrtoint ptr %6 to i64
  %10 = ptrtoint ptr %4 to i64
  %11 = sub i64 %9, %10
  %12 = ashr exact i64 %11, 3
  %.089 = add nsw i64 %12, -1
  %.not10 = icmp eq i64 %.089, 0
  br i1 %.not10, label %.loopexit, label %.lr.ph

.lr.ph:                                           ; preds = %8, %.lr.ph
  %.0813 = phi i64 [ %.08, %.lr.ph ], [ %.089, %8 ]
  %.012 = phi i32 [ %19, %.lr.ph ], [ %1, %8 ]
  %.08.in11 = phi i64 [ %.0813, %.lr.ph ], [ %12, %8 ]
  %13 = zext i32 %.012 to i64
  %14 = urem i64 %13, %.08.in11
  %15 = getelementptr inbounds nuw %"struct.Luau::NotNull", ptr %4, i64 %.0813
  %16 = getelementptr inbounds nuw %"struct.Luau::NotNull", ptr %4, i64 %14
  %.sroa.0.0.copyload.i = load ptr, ptr %15, align 8, !tbaa !81
  %17 = load i64, ptr %16, align 8, !tbaa !81
  store i64 %17, ptr %15, align 8, !tbaa !81
  store ptr %.sroa.0.0.copyload.i, ptr %16, align 8, !tbaa !81
  %18 = mul i32 %.012, 1664525
  %19 = add i32 %18, 1013904223
  %.08 = add i64 %.0813, -1
  %.not = icmp eq i64 %.08, 0
  br i1 %.not, label %.loopexit, label %.lr.ph, !llvm.loop !413

.loopexit:                                        ; preds = %.lr.ph, %8, %2
  ret void
}